target datalayout = "e-m:e-p270:32:32-p271:32:32-p272:64:64-i64:64-i128:128-f80:128-n8:16:32:64-S128"
target triple = "x86_64-pc-linux-gnu"

%"class.pxrInternal_v0_24__pxrReserved__::TfCallContext" = type <{ ptr, ptr, i64, ptr, i8, [7 x i8] }>

@.str = private unnamed_addr constant [119 x i8] c"generated/home/dtcxzyw/WorkSpace/Projects/compilers/llvm-opt-benchmark/bench/openusd/OpenUSD/pxr/imaging/hio/types.cpp\00", align 1
@__func__._ZN32pxrInternal_v0_24__pxrReserved__12HioGetFormatEjNS_7HioTypeEb = private unnamed_addr constant [13 x i8] c"HioGetFormat\00", align 1
@__PRETTY_FUNCTION__._ZN32pxrInternal_v0_24__pxrReserved__12HioGetFormatEjNS_7HioTypeEb = private unnamed_addr constant [82 x i8] c"HioFormat pxrInternal_v0_24__pxrReserved__::HioGetFormat(uint32_t, HioType, bool)\00", align 1
@.str.1 = private unnamed_addr constant [13 x i8] c"Invalid type\00", align 1
@.str.2 = private unnamed_addr constant [22 x i8] c"Invalid channel count\00", align 1

; Function Attrs: mustprogress nounwind uwtable
define linkonce_odr void @_ZN32pxrInternal_v0_24__pxrReserved__13TfCallContextC2EPKcS2_mS2_(ptr noundef nonnull align 8 dereferenceable(33) %0, ptr noundef %1, ptr noundef %2, i64 noundef %3, ptr noundef %4) unnamed_addr #2 comdat align 2 {
  %6 = alloca ptr, align 8
  %7 = alloca ptr, align 8
  %8 = alloca ptr, align 8
  %9 = alloca i64, align 8
  %10 = alloca ptr, align 8
  store ptr %0, ptr %6, align 8
  store ptr %1, ptr %7, align 8
  store ptr %2, ptr %8, align 8
  store i64 %3, ptr %9, align 8
  store ptr %4, ptr %10, align 8
  %11 = load ptr, ptr %6, align 8
  %12 = getelementptr inbounds nuw %"class.pxrInternal_v0_24__pxrReserved__::TfCallContext", ptr %11, i32 0, i32 0
  %13 = load ptr, ptr %7, align 8
  store ptr %13, ptr %12, align 8
  %14 = getelementptr inbounds nuw %"class.pxrInternal_v0_24__pxrReserved__::TfCallContext", ptr %11, i32 0, i32 1
  %15 = load ptr, ptr %8, align 8
  store ptr %15, ptr %14, align 8
  %16 = getelementptr inbounds nuw %"class.pxrInternal_v0_24__pxrReserved__::TfCallContext", ptr %11, i32 0, i32 2
  %17 = load i64, ptr %9, align 8
  store i64 %17, ptr %16, align 8
  %18 = getelementptr inbounds nuw %"class.pxrInternal_v0_24__pxrReserved__::TfCallContext", ptr %11, i32 0, i32 3
  %19 = load ptr, ptr %10, align 8
  store ptr %19, ptr %18, align 8
  %20 = getelementptr inbounds nuw %"class.pxrInternal_v0_24__pxrReserved__::TfCallContext", ptr %11, i32 0, i32 4
  store i8 0, ptr %20, align 8
  ret void
}

; Function Attrs: mustprogress uwtable
define noundef i32 @_ZN32pxrInternal_v0_24__pxrReserved__12HioGetFormatEjNS_7HioTypeEb(i32 noundef %0, i32 noundef %1, i1 noundef zeroext %2) #0 {
  %4 = alloca i32, align 4
  %5 = alloca i32, align 4
  %6 = alloca i32, align 4
  %7 = alloca i8, align 1
  %8 = alloca %"class.pxrInternal_v0_24__pxrReserved__::TfCallContext", align 8
  %9 = alloca %"class.pxrInternal_v0_24__pxrReserved__::TfCallContext", align 8
  store i32 %0, ptr %5, align 4
  store i32 %1, ptr %6, align 4
  %10 = zext i1 %2 to i8
  store i8 %10, ptr %7, align 1
  %11 = load i32, ptr %6, align 4
  %12 = icmp sge i32 %11, 10
  br i1 %12, label %13, label %14

13:                                               ; preds = %3
  call void @_ZN32pxrInternal_v0_24__pxrReserved__13TfCallContextC2EPKcS2_mS2_(ptr noundef nonnull align 8 dereferenceable(33) %8, ptr noundef @.str, ptr noundef @__func__._ZN32pxrInternal_v0_24__pxrReserved__12HioGetFormatEjNS_7HioTypeEb, i64 noundef 66, ptr noundef @__PRETTY_FUNCTION__._ZN32pxrInternal_v0_24__pxrReserved__12HioGetFormatEjNS_7HioTypeEb)
  call void (ptr, i32, ptr, ...) @_ZN32pxrInternal_v0_24__pxrReserved__18Tf_PostErrorHelperERKNS_13TfCallContextENS_16TfDiagnosticTypeEPKcz(ptr noundef nonnull align 8 dereferenceable(33) %8, i32 noundef 1, ptr noundef @.str.1)
  store i32 -1, ptr %4, align 4
  br label %37

14:                                               ; preds = %3
  %15 = load i32, ptr %5, align 4
  %16 = icmp eq i32 %15, 0
  br i1 %16, label %20, label %17

17:                                               ; preds = %14
  %18 = load i32, ptr %5, align 4
  %19 = icmp ugt i32 %18, 4
  br i1 %19, label %20, label %21

20:                                               ; preds = %17, %14
  call void @_ZN32pxrInternal_v0_24__pxrReserved__13TfCallContextC2EPKcS2_mS2_(ptr noundef nonnull align 8 dereferenceable(33) %9, ptr noundef @.str, ptr noundef @__func__._ZN32pxrInternal_v0_24__pxrReserved__12HioGetFormatEjNS_7HioTypeEb, i64 noundef 71, ptr noundef @__PRETTY_FUNCTION__._ZN32pxrInternal_v0_24__pxrReserved__12HioGetFormatEjNS_7HioTypeEb)
  call void (ptr, i32, ptr, ...) @_ZN32pxrInternal_v0_24__pxrReserved__18Tf_PostErrorHelperERKNS_13TfCallContextENS_16TfDiagnosticTypeEPKcz(ptr noundef nonnull align 8 dereferenceable(33) %9, i32 noundef 1, ptr noundef @.str.2)
  store i32 -1, ptr %4, align 4
  br label %37

21:                                               ; preds = %17
  %22 = load i8, ptr %7, align 1
  %23 = trunc i8 %22 to i1
  br i1 %23, label %24, label %28

24:                                               ; preds = %21
  %25 = load i32, ptr %6, align 4
  %26 = icmp eq i32 %25, 0
  br i1 %26, label %27, label %28

27:                                               ; preds = %24
  store i32 1, ptr %6, align 4
  br label %28

28:                                               ; preds = %27, %24, %21
  %29 = load i32, ptr %6, align 4
  %30 = zext i32 %29 to i64
  %31 = getelementptr inbounds [10 x [4 x i32]], ptr @_ZN32pxrInternal_v0_24__pxrReserved__L11_hioFormatsE, i64 0, i64 %30
  %32 = load i32, ptr %5, align 4
  %33 = sub i32 %32, 1
  %34 = zext i32 %33 to i64
  %35 = getelementptr inbounds [4 x i32], ptr %31, i64 0, i64 %34
  %36 = load i32, ptr %35, align 4
  store i32 %36, ptr %4, align 4
  br label %37

37:                                               ; preds = %28, %20, %13
  %38 = load i32, ptr %4, align 4
  ret i32 %38
}