; Function Attrs: mustprogress uwtable
define noundef i32 @_ZN32pxrInternal_v0_24__pxrReserved__12HioGetFormatEjNS_7HioTypeEb(i32 noundef %0, i32 noundef %1, i1 noundef zeroext %2) local_unnamed_addr #0 {
  %4 = alloca %"class.pxrInternal_v0_24__pxrReserved__::TfCallContext", align 8
  %5 = alloca %"class.pxrInternal_v0_24__pxrReserved__::TfCallContext", align 8
  %6 = icmp sgt i32 %1, 9
  br i1 %6, label %7, label %12

7:                                                ; preds = %3
  store ptr @.str, ptr %4, align 8
  %8 = getelementptr inbounds nuw i8, ptr %4, i64 8
  store ptr @__func__._ZN32pxrInternal_v0_24__pxrReserved__12HioGetFormatEjNS_7HioTypeEb, ptr %8, align 8
  %9 = getelementptr inbounds nuw i8, ptr %4, i64 16
  store i64 66, ptr %9, align 8
  %10 = getelementptr inbounds nuw i8, ptr %4, i64 24
  store ptr @__PRETTY_FUNCTION__._ZN32pxrInternal_v0_24__pxrReserved__12HioGetFormatEjNS_7HioTypeEb, ptr %10, align 8
  %11 = getelementptr inbounds nuw i8, ptr %4, i64 32
  store i8 0, ptr %11, align 8
  call void (ptr, i32, ptr, ...) @_ZN32pxrInternal_v0_24__pxrReserved__18Tf_PostErrorHelperERKNS_13TfCallContextENS_16TfDiagnosticTypeEPKcz(ptr noundef nonnull align 8 dereferenceable(33) %4, i32 noundef 1, ptr noundef nonnull @.str.1)
  br label %27

12:                                               ; preds = %3
  %13 = add i32 %0, -5
  %or.cond = icmp ult i32 %13, -4
  br i1 %or.cond, label %14, label %19

14:                                               ; preds = %12
  store ptr @.str, ptr %5, align 8
  %15 = getelementptr inbounds nuw i8, ptr %5, i64 8
  store ptr @__func__._ZN32pxrInternal_v0_24__pxrReserved__12HioGetFormatEjNS_7HioTypeEb, ptr %15, align 8
  %16 = getelementptr inbounds nuw i8, ptr %5, i64 16
  store i64 71, ptr %16, align 8
  %17 = getelementptr inbounds nuw i8, ptr %5, i64 24
  store ptr @__PRETTY_FUNCTION__._ZN32pxrInternal_v0_24__pxrReserved__12HioGetFormatEjNS_7HioTypeEb, ptr %17, align 8
  %18 = getelementptr inbounds nuw i8, ptr %5, i64 32
  store i8 0, ptr %18, align 8
  call void (ptr, i32, ptr, ...) @_ZN32pxrInternal_v0_24__pxrReserved__18Tf_PostErrorHelperERKNS_13TfCallContextENS_16TfDiagnosticTypeEPKcz(ptr noundef nonnull align 8 dereferenceable(33) %5, i32 noundef 1, ptr noundef nonnull @.str.2)
  br label %27

19:                                               ; preds = %12
  %20 = icmp eq i32 %1, 0
  %or.cond3 = and i1 %2, %20
  %21 = zext i32 %1 to i64
  %22 = select i1 %or.cond3, i64 1, i64 %21
  %23 = add nsw i32 %0, -1
  %24 = zext nneg i32 %23 to i64
  %25 = getelementptr inbounds [10 x [4 x i32]], ptr @_ZN32pxrInternal_v0_24__pxrReserved__L11_hioFormatsE, i64 0, i64 %22, i64 %24
  %26 = load i32, ptr %25, align 4
  br label %27

27:                                               ; preds = %19, %14, %7
  %.0 = phi i32 [ -1, %7 ], [ -1, %14 ], [ %26, %19 ]
  ret i32 %.0
}